target datalayout = "e-m:e-p270:32:32-p271:32:32-p272:64:64-i64:64-i128:128-f80:128-n8:16:32:64-S128"
target triple = "x86_64-pc-linux-gnu"

%struct._object = type { %union.anon, ptr }
%union.anon = type { i64 }
%struct.readlinestate = type { ptr, ptr, ptr, ptr, ptr, ptr }

@.str.31 = private unnamed_addr constant [19 x i8] c"set_pre_input_hook\00", align 1
@_Py_NoneStruct = external global %struct._object, align 8
@.str.47 = private unnamed_addr constant [15 x i8] c"pre_input_hook\00", align 1

; Function Attrs: inlinehint nounwind uwtable
define internal ptr @get_readline_state(ptr noundef %0) #5 {
  %2 = alloca ptr, align 8
  %3 = alloca ptr, align 8
  store ptr %0, ptr %2, align 8, !tbaa !19
  call void @llvm.lifetime.start.p0(i64 8, ptr %3) #10
  %4 = load ptr, ptr %2, align 8, !tbaa !19
  %5 = call ptr @PyModule_GetState(ptr noundef %4)
  store ptr %5, ptr %3, align 8, !tbaa !20
  %6 = load ptr, ptr %3, align 8, !tbaa !20
  call void @llvm.lifetime.end.p0(i64 8, ptr %3) #10
  ret ptr %6
}

; Function Attrs: nounwind uwtable
define internal ptr @readline_set_pre_input_hook_impl(ptr noundef %0, ptr noundef %1) #0 {
  %3 = alloca ptr, align 8
  %4 = alloca ptr, align 8
  %5 = alloca ptr, align 8
  store ptr %0, ptr %3, align 8, !tbaa !19
  store ptr %1, ptr %4, align 8, !tbaa !19
  call void @llvm.lifetime.start.p0(i64 8, ptr %5) #10
  %6 = load ptr, ptr %3, align 8, !tbaa !19
  %7 = call ptr @get_readline_state(ptr noundef %6)
  store ptr %7, ptr %5, align 8, !tbaa !20
  %8 = load ptr, ptr %5, align 8, !tbaa !20
  %9 = getelementptr inbounds nuw %struct.readlinestate, ptr %8, i32 0, i32 2
  %10 = load ptr, ptr %4, align 8, !tbaa !19
  %11 = call ptr @set_hook(ptr noundef @.str.47, ptr noundef %9, ptr noundef %10)
  call void @llvm.lifetime.end.p0(i64 8, ptr %5) #10
  ret ptr %11
}

; Function Attrs: nounwind uwtable
define internal ptr @readline_set_pre_input_hook(ptr noundef %0, ptr noundef %1, i64 noundef %2) #0 {
  %4 = alloca ptr, align 8
  %5 = alloca ptr, align 8
  %6 = alloca i64, align 8
  %7 = alloca ptr, align 8
  %8 = alloca ptr, align 8
  store ptr %0, ptr %4, align 8, !tbaa !19
  store ptr %1, ptr %5, align 8, !tbaa !36
  store i64 %2, ptr %6, align 8, !tbaa !24
  call void @llvm.lifetime.start.p0(i64 8, ptr %7) #10
  store ptr null, ptr %7, align 8, !tbaa !19
  call void @llvm.lifetime.start.p0(i64 8, ptr %8) #10
  store ptr @_Py_NoneStruct, ptr %8, align 8, !tbaa !19
  %9 = load i64, ptr %6, align 8, !tbaa !24
  %10 = icmp sle i64 0, %9
  br i1 %10, label %11, label %14

11:                                               ; preds = %3
  %12 = load i64, ptr %6, align 8, !tbaa !24
  %13 = icmp sle i64 %12, 1
  br i1 %13, label %19, label %14

14:                                               ; preds = %11, %3
  %15 = load i64, ptr %6, align 8, !tbaa !24
  %16 = call i32 @_PyArg_CheckPositional(ptr noundef @.str.31, i64 noundef %15, i64 noundef 0, i64 noundef 1)
  %17 = icmp ne i32 %16, 0
  br i1 %17, label %19, label %18

18:                                               ; preds = %14
  br label %31

19:                                               ; preds = %14, %11
  %20 = load i64, ptr %6, align 8, !tbaa !24
  %21 = icmp slt i64 %20, 1
  br i1 %21, label %22, label %23

22:                                               ; preds = %19
  br label %27

23:                                               ; preds = %19
  %24 = load ptr, ptr %5, align 8, !tbaa !36
  %25 = getelementptr ptr, ptr %24, i64 0
  %26 = load ptr, ptr %25, align 8, !tbaa !19
  store ptr %26, ptr %8, align 8, !tbaa !19
  br label %27

27:                                               ; preds = %23, %22
  %28 = load ptr, ptr %4, align 8, !tbaa !19
  %29 = load ptr, ptr %8, align 8, !tbaa !19
  %30 = call ptr @readline_set_pre_input_hook_impl(ptr noundef %28, ptr noundef %29)
  store ptr %30, ptr %7, align 8, !tbaa !19
  br label %31

31:                                               ; preds = %27, %18
  %32 = load ptr, ptr %7, align 8, !tbaa !19
  call void @llvm.lifetime.end.p0(i64 8, ptr %8) #10
  call void @llvm.lifetime.end.p0(i64 8, ptr %7) #10
  ret ptr %32
}